(dp0
S'replied'
p1
F-2.3
sS'ugh'
p2
F3.1
sS'appropriately'
p3
F-3.1
sS'hugh'
p4
F2.5
sS'madsen'
p5
F3.1
sS'peppy'
p6
F-2.3
sS'ernie'
p7
F-2.3
sS'episodes'
p8
F-2.3
sS'clocks'
p9
F-2.3
sS'directs'
p10
F-4.0
sS'tenuous'
p11
F-2.3
sS'innovative'
p12
F-2.6
sS'comically'
p13
F-2.9
sS'portrayed'
p14
F-3.3
sS'conjure'
p15
F-2.9
sS'perfect'
p16
F-2.4
sS'ballet'
p17
F-2.9
sS'hal'
p18
F3.1
sS'wee'
p19
F3.1
sS'jar'
p20
F-2.9
sS'jan'
p21
F-2.4
sS'rico'
p22
F-2.3
sS'understated'
p23
F-3.7
sS'overthrow'
p24
F3.1
sS'derivative'
p25
F4.3
sS'beware'
p26
F2.4
sS'colleague'
p27
F-2.3
sS'customer'
p28
F-2.3
sS'samurai'
p29
F-2.3
sS'gloomy'
p30
F-4.9
sS'abound'
p31
F-2.5
sS'bringing'
p32
F-4.5
sS'sensational'
p33
F-3.6
sS'sant'
p34
F-2.9
sS'sans'
p35
F3.1
sS'progression'
p36
F-2.9
sS'pauly'
p37
F2.4
sS'nicely'
p38
F-2.6
sS'pleasures'
p39
F-2.3
sS'alice'
p40
F-2.9
sS'patch'
p41
F3.1
sS'cooler'
p42
F2.4
sS'sand'
p43
F-2.5
sS'fisherman'
p44
F2.5
sS'participation'
p45
F2.4
sS'matthau'
p46
F4.5
sS'reactions'
p47
F-2.9
sS'attorney'
p48
F-2.9
sS'expanded'
p49
F-2.3
sS'maclachlan'
p50
F-2.3
sS'dumping'
p51
F-3.6
sS'centuries'
p52
F-2.3
sS'bounce'
p53
F3.1
sS'depraved'
p54
F2.4
sS'squabble'
p55
F2.4
sS'displays'
p56
F-2.9
sS'horrendous'
p57
F3.1
sS'intend'
p58
F-2.3
sS'bore'
p59
F2.4
sS'slew'
p60
F5.8
sS'recognition'
p61
F-2.7
sS'techniques'
p62
F-2.4
sS'unoriginal'
p63
F5.8
sS'destiny'
p64
F-5.3
sS'insulting'
p65
F6.5
sS'paired'
p66
F2.4
sS'han'
p67
F-2.3
sS'novelty'
p68
F3.1
sS'whodunit'
p69
F-2.9
sS'shenanigans'
p70
F2.4
sS'unintentionally'
p71
F2.6
sS'shocks'
p72
F-4.9
sS'caan'
p73
F6.5
sS'hammond'
p74
F2.4
sS'rooker'
p75
F-2.3
sS'tsui'
p76
F2.4
sS'jovovich'
p77
F2.4
sS'prior'
p78
F-2.4
sS'taps'
p79
F-2.3
sS'leadership'
p80
F-2.5
sS'complicated'
p81
F-2.9
sS'succumbs'
p82
F-2.3
sS'personified'
p83
F-2.3
sS'bening'
p84
F-2.3
sS'lawsuit'
p85
F-2.3
sS'universally'
p86
F2.4
sS'staring'
p87
F3.1
sS'natured'
p88
F-2.9
sS'hammy'
p89
F3.1
sS'pairs'
p90
F2.4
sS'lifestyle'
p91
F-2.3
sS'uplifting'
p92
F-6.8
sS'maniac'
p93
F4.5
sS'grounded'
p94
F-2.3
sS'unwittingly'
p95
F-3.6
sS'deserves'
p96
F-3.7
sS'concentrates'
p97
F-3.6
sS'testament'
p98
F-6.2
sS'china'
p99
F-2.9
sS'resonates'
p100
F-2.3
sS'rehash'
p101
F4.5
sS'guessing'
p102
F-2.5
sS'wasting'
p103
F4.5
sS'troubles'
p104
F-2.3
sS'disfigured'
p105
F-2.3
sS'brutally'
p106
F-6.8
sS'beings'
p107
F-2.5
sS'dumbest'
p108
F3.8
sS'blonde'
p109
F3.9
sS'belt'
p110
F3.1
sS'olds'
p111
F3.1
sS'span'
p112
F-5.5
sS'catchy'
p113
F-3.6
sS'insecurity'
p114
F-2.3
sS'moderately'
p115
F5.1
sS'unfocused'
p116
F3.1
sS'approximately'
p117
F3.1
sS'longs'
p118
F-3.6
sS'depravity'
p119
F-2.3
sS'parents'
p120
F-2.3
sS'benson'
p121
F-2.3
sS'lingering'
p122
F-2.9
sS'marty'
p123
F-2.3
sS'murphy'
p124
F-3.3
sS'lane'
p125
F-2.4
sS'dave'
p126
F-2.6
sS'natalie'
p127
F-2.3
sS'atlantic'
p128
F-4.9
sS'mishap'
p129
F-2.9
sS'doubts'
p130
F-4.2
sS'wasted'
p131
F4.7
sS'flawless'
p132
F-2.7
sS'omaha'
p133
F-2.3
sS'abused'
p134
F-2.9
sS'tossed'
p135
F5.6
sS'bruckheimer'
p136
F5.1
sS'tripe'
p137
F3.8
sS'patriarch'
p138
F-2.9
sS'employ'
p139
F-3.3
sS'rehab'
p140
F2.4
sS'guilt'
p141
F-2.6
sS'era'
p142
F-5.9
sS'historical'
p143
F-2.5
sS'prescott'
p144
F-2.3
sS'sometimes'
p145
F-2.3
sS'wang'
p146
F-2.3
sS'wakes'
p147
F-2.5
sS'mirrors'
p148
F2.4
sS'sumptuous'
p149
F-5.5
sS'influence'
p150
F-2.5
sS'dubious'
p151
F2.8
sS'nears'
p152
F-2.3
sS'turner'
p153
F3.5
sS'cream'
p154
F2.5
sS'moniker'
p155
F3.1
sS'puzzling'
p156
F-2.3
sS'wcw'
p157
F3.1
sS'nonetheless'
p158
F-3.8
sS'convenient'
p159
F2.5
sS'hugo'
p160
F-2.5
sS'gripe'
p161
F-2.9
sS'dismissed'
p162
F-3.6
sS'subjects'
p163
F-2.3
sS'moron'
p164
F2.4
sS'unabashedly'
p165
F2.4
sS'worldwide'
p166
F3.1
sS'visually'
p167
F-2.8
sS'topping'
p168
F-3.6
sS'wires'
p169
F4.5
sS'effortlessly'
p170
F-7.5
sS'fuss'
p171
F-2.3
sS'flooded'
p172
F2.4
sS'discerning'
p173
F2.4
sS'quentin'
p174
F-4.1
sS'prepared'
p175
F-3.5
sS'waving'
p176
F2.4
sS'fueled'
p177
F-2.9
sS'modest'
p178
F2.4
sS'edges'
p179
F-2.5
sS'intent'
p180
F3.1
sS'printed'
p181
F-2.3
sS'arch'
p182
F3.1
sS'union'
p183
F-2.9
sS'brainless'
p184
F2.7
sS'malevolent'
p185
F-2.9
sS'lang'
p186
F-3.6
sS'understands'
p187
F-3.7
sS'tracking'
p188
F2.5
sS"'"
p189
F3.1
sS'delicately'
p190
F-2.3
sS'corporate'
p191
F-2.4
sS'humble'
p192
F-2.9
sS'sickening'
p193
F2.4
sS'18th'
p194
F-2.9
sS'compete'
p195
F-2.3
sS'realizes'
p196
F-2.9
sS'villainous'
p197
F2.7
sS'barren'
p198
F-2.9
sS'germany'
p199
F-2.5
sS'stressed'
p200
F-2.3
s.